target datalayout = "e-m:e-p270:32:32-p271:32:32-p272:64:64-i64:64-i128:128-f80:128-n8:16:32:64-S128"
target triple = "x86_64-pc-linux-gnu"

%class.Pipeline = type { i8, i8, i8, i8, i8, i8, i8, i8, i8, ptr, ptr, ptr, %class.Pipeline_Use }
%class.Pipeline_Use = type { i32, i32, i32, ptr }
%class.Pipeline_Use_Element = type { i32, i32, i32, i8, %class.Pipeline_Use_Cycle_Mask }
%class.Pipeline_Use_Cycle_Mask = type { i32 }

; Function Attrs: mustprogress nounwind uwtable
define linkonce_odr hidden noundef i32 @_ZNK12Pipeline_Use24resourcesUsedExclusivelyEv(ptr noundef nonnull align 8 dereferenceable(24) %0) #1 comdat align 2 {
  %2 = alloca ptr, align 8
  store ptr %0, ptr %2, align 8
  %3 = load ptr, ptr %2, align 8
  %4 = getelementptr inbounds %class.Pipeline_Use, ptr %3, i32 0, i32 1
  %5 = load i32, ptr %4, align 4
  ret i32 %5
}

; Function Attrs: mustprogress nounwind uwtable
define linkonce_odr hidden noundef zeroext i1 @_ZNK23Pipeline_Use_Cycle_Mask8overlapsERKS_(ptr noundef nonnull align 4 dereferenceable(4) %0, ptr noundef nonnull align 4 dereferenceable(4) %1) #1 comdat align 2 {
  %3 = alloca ptr, align 8
  %4 = alloca ptr, align 8
  store ptr %0, ptr %3, align 8
  store ptr %1, ptr %4, align 8
  %5 = load ptr, ptr %3, align 8
  %6 = getelementptr inbounds %class.Pipeline_Use_Cycle_Mask, ptr %5, i32 0, i32 0
  %7 = load i32, ptr %6, align 4
  %8 = load ptr, ptr %4, align 8
  %9 = getelementptr inbounds %class.Pipeline_Use_Cycle_Mask, ptr %8, i32 0, i32 0
  %10 = load i32, ptr %9, align 4
  %11 = and i32 %7, %10
  %12 = icmp ne i32 %11, 0
  ret i1 %12
}

; Function Attrs: mustprogress nounwind uwtable
define linkonce_odr hidden noundef nonnull align 4 dereferenceable(4) ptr @_ZN23Pipeline_Use_Cycle_MasklSEi(ptr noundef nonnull align 4 dereferenceable(4) %0, i32 noundef %1) #1 comdat align 2 {
  %3 = alloca ptr, align 8
  %4 = alloca i32, align 4
  store ptr %0, ptr %3, align 8
  store i32 %1, ptr %4, align 4
  %5 = load ptr, ptr %3, align 8
  %6 = load i32, ptr %4, align 4
  %7 = getelementptr inbounds %class.Pipeline_Use_Cycle_Mask, ptr %5, i32 0, i32 0
  %8 = load i32, ptr %7, align 4
  %9 = shl i32 %8, %6
  store i32 %9, ptr %7, align 4
  ret ptr %5
}

; Function Attrs: mustprogress nounwind uwtable
define linkonce_odr hidden i32 @_ZNK20Pipeline_Use_Element4maskEv(ptr noundef nonnull align 4 dereferenceable(20) %0) #1 comdat align 2 {
  %2 = alloca %class.Pipeline_Use_Cycle_Mask, align 4
  %3 = alloca ptr, align 8
  store ptr %0, ptr %3, align 8
  %4 = load ptr, ptr %3, align 8
  %5 = getelementptr inbounds %class.Pipeline_Use_Element, ptr %4, i32 0, i32 4
  call void @llvm.memcpy.p0.p0.i64(ptr align 4 %2, ptr align 4 %5, i64 4, i1 false)
  %6 = getelementptr inbounds %class.Pipeline_Use_Cycle_Mask, ptr %2, i32 0, i32 0
  %7 = load i32, ptr %6, align 4
  ret i32 %7
}

; Function Attrs: mustprogress nounwind uwtable
define linkonce_odr hidden noundef i32 @_ZNK20Pipeline_Use_Element4usedEv(ptr noundef nonnull align 4 dereferenceable(20) %0) #1 comdat align 2 {
  %2 = alloca ptr, align 8
  store ptr %0, ptr %2, align 8
  %3 = load ptr, ptr %2, align 8
  %4 = getelementptr inbounds %class.Pipeline_Use_Element, ptr %3, i32 0, i32 0
  %5 = load i32, ptr %4, align 4
  ret i32 %5
}

; Function Attrs: mustprogress nounwind uwtable
define linkonce_odr hidden noundef zeroext i1 @_ZNK20Pipeline_Use_Element8multipleEv(ptr noundef nonnull align 4 dereferenceable(20) %0) #1 comdat align 2 {
  %2 = alloca ptr, align 8
  store ptr %0, ptr %2, align 8
  %3 = load ptr, ptr %2, align 8
  %4 = getelementptr inbounds %class.Pipeline_Use_Element, ptr %3, i32 0, i32 3
  %5 = load i8, ptr %4, align 4
  %6 = trunc i8 %5 to i1
  ret i1 %6
}

; Function Attrs: mustprogress nounwind uwtable
define linkonce_odr hidden noundef ptr @_ZNK8Pipeline18resourceUseElementEj(ptr noundef nonnull align 8 dereferenceable(64) %0, i32 noundef %1) #1 comdat align 2 {
  %3 = alloca ptr, align 8
  %4 = alloca i32, align 4
  store ptr %0, ptr %3, align 8
  store i32 %1, ptr %4, align 4
  %5 = load ptr, ptr %3, align 8
  %6 = getelementptr inbounds %class.Pipeline, ptr %5, i32 0, i32 12
  %7 = getelementptr inbounds %class.Pipeline_Use, ptr %6, i32 0, i32 3
  %8 = load ptr, ptr %7, align 8
  %9 = load i32, ptr %4, align 4
  %10 = zext i32 %9 to i64
  %11 = getelementptr inbounds %class.Pipeline_Use_Element, ptr %8, i64 %10
  ret ptr %11
}

; Function Attrs: mustprogress nounwind uwtable
define linkonce_odr hidden noundef i32 @_ZNK8Pipeline16resourceUseCountEv(ptr noundef nonnull align 8 dereferenceable(64) %0) #1 comdat align 2 {
  %2 = alloca ptr, align 8
  store ptr %0, ptr %2, align 8
  %3 = load ptr, ptr %2, align 8
  %4 = getelementptr inbounds %class.Pipeline, ptr %3, i32 0, i32 12
  %5 = getelementptr inbounds %class.Pipeline_Use, ptr %4, i32 0, i32 2
  %6 = load i32, ptr %5, align 8
  ret i32 %6
}

; Function Attrs: mustprogress nounwind uwtable
define linkonce_odr hidden noundef i32 @_ZNK8Pipeline24resourcesUsedExclusivelyEv(ptr noundef nonnull align 8 dereferenceable(64) %0) #1 comdat align 2 {
  %2 = alloca ptr, align 8
  store ptr %0, ptr %2, align 8
  %3 = load ptr, ptr %2, align 8
  %4 = getelementptr inbounds %class.Pipeline, ptr %3, i32 0, i32 12
  %5 = call noundef i32 @_ZNK12Pipeline_Use24resourcesUsedExclusivelyEv(ptr noundef nonnull align 8 dereferenceable(24) %4)
  ret i32 %5
}

; Function Attrs: mustprogress nounwind uwtable
define hidden noundef i32 @_ZNK8Pipeline23functional_unit_latencyEjPKS_(ptr noundef nonnull align 8 dereferenceable(64) %0, i32 noundef %1, ptr noundef %2) #1 align 2 {
  %4 = alloca i32, align 4
  %5 = alloca ptr, align 8
  %6 = alloca i32, align 4
  %7 = alloca ptr, align 8
  %8 = alloca i32, align 4
  %9 = alloca i32, align 4
  %10 = alloca ptr, align 8
  %11 = alloca i32, align 4
  %12 = alloca ptr, align 8
  %13 = alloca %class.Pipeline_Use_Cycle_Mask, align 4
  %14 = alloca %class.Pipeline_Use_Cycle_Mask, align 4
  store ptr %0, ptr %5, align 8
  store i32 %1, ptr %6, align 4
  store ptr %2, ptr %7, align 8
  %15 = load ptr, ptr %5, align 8
  %16 = call noundef i32 @_ZNK8Pipeline24resourcesUsedExclusivelyEv(ptr noundef nonnull align 8 dereferenceable(64) %15)
  %17 = load ptr, ptr %7, align 8
  %18 = call noundef i32 @_ZNK8Pipeline24resourcesUsedExclusivelyEv(ptr noundef nonnull align 8 dereferenceable(64) %17)
  %19 = and i32 %16, %18
  store i32 %19, ptr %8, align 4
  %20 = load i32, ptr %8, align 4
  %21 = icmp eq i32 %20, 0
  br i1 %21, label %22, label %24

22:                                               ; preds = %3
  %23 = load i32, ptr %6, align 4
  store i32 %23, ptr %4, align 4
  br label %82

24:                                               ; preds = %3
  store i32 0, ptr %9, align 4
  br label %25

25:                                               ; preds = %77, %24
  %26 = load i32, ptr %9, align 4
  %27 = load ptr, ptr %7, align 8
  %28 = call noundef i32 @_ZNK8Pipeline16resourceUseCountEv(ptr noundef nonnull align 8 dereferenceable(64) %27)
  %29 = icmp ult i32 %26, %28
  br i1 %29, label %30, label %80

30:                                               ; preds = %25
  %31 = load ptr, ptr %7, align 8
  %32 = load i32, ptr %9, align 4
  %33 = call noundef ptr @_ZNK8Pipeline18resourceUseElementEj(ptr noundef nonnull align 8 dereferenceable(64) %31, i32 noundef %32)
  store ptr %33, ptr %10, align 8
  %34 = load ptr, ptr %10, align 8
  %35 = call noundef zeroext i1 @_ZNK20Pipeline_Use_Element8multipleEv(ptr noundef nonnull align 4 dereferenceable(20) %34)
  br i1 %35, label %36, label %37

36:                                               ; preds = %30
  br label %77

37:                                               ; preds = %30
  store i32 0, ptr %11, align 4
  br label %38

38:                                               ; preds = %73, %37
  %39 = load i32, ptr %11, align 4
  %40 = call noundef i32 @_ZNK8Pipeline16resourceUseCountEv(ptr noundef nonnull align 8 dereferenceable(64) %15)
  %41 = icmp ult i32 %39, %40
  br i1 %41, label %42, label %76

42:                                               ; preds = %38
  %43 = load i32, ptr %11, align 4
  %44 = call noundef ptr @_ZNK8Pipeline18resourceUseElementEj(ptr noundef nonnull align 8 dereferenceable(64) %15, i32 noundef %43)
  store ptr %44, ptr %12, align 8
  %45 = load ptr, ptr %12, align 8
  %46 = call noundef zeroext i1 @_ZNK20Pipeline_Use_Element8multipleEv(ptr noundef nonnull align 4 dereferenceable(20) %45)
  br i1 %46, label %47, label %48

47:                                               ; preds = %42
  br label %73

48:                                               ; preds = %42
  %49 = load ptr, ptr %10, align 8
  %50 = call noundef i32 @_ZNK20Pipeline_Use_Element4usedEv(ptr noundef nonnull align 4 dereferenceable(20) %49)
  %51 = load ptr, ptr %12, align 8
  %52 = call noundef i32 @_ZNK20Pipeline_Use_Element4usedEv(ptr noundef nonnull align 4 dereferenceable(20) %51)
  %53 = and i32 %50, %52
  %54 = icmp ne i32 %53, 0
  br i1 %54, label %55, label %72

55:                                               ; preds = %48
  %56 = load ptr, ptr %10, align 8
  %57 = call i32 @_ZNK20Pipeline_Use_Element4maskEv(ptr noundef nonnull align 4 dereferenceable(20) %56)
  %58 = getelementptr inbounds %class.Pipeline_Use_Cycle_Mask, ptr %13, i32 0, i32 0
  store i32 %57, ptr %58, align 4
  %59 = load ptr, ptr %12, align 8
  %60 = call i32 @_ZNK20Pipeline_Use_Element4maskEv(ptr noundef nonnull align 4 dereferenceable(20) %59)
  %61 = getelementptr inbounds %class.Pipeline_Use_Cycle_Mask, ptr %14, i32 0, i32 0
  store i32 %60, ptr %61, align 4
  %62 = load i32, ptr %6, align 4
  %63 = call noundef nonnull align 4 dereferenceable(4) ptr @_ZN23Pipeline_Use_Cycle_MasklSEi(ptr noundef nonnull align 4 dereferenceable(4) %14, i32 noundef %62)
  br label %64

64:                                               ; preds = %68, %55
  %65 = call noundef zeroext i1 @_ZNK23Pipeline_Use_Cycle_Mask8overlapsERKS_(ptr noundef nonnull align 4 dereferenceable(4) %13, ptr noundef nonnull align 4 dereferenceable(4) %14)
  br i1 %65, label %66, label %71

66:                                               ; preds = %64
  %67 = call noundef nonnull align 4 dereferenceable(4) ptr @_ZN23Pipeline_Use_Cycle_MasklSEi(ptr noundef nonnull align 4 dereferenceable(4) %14, i32 noundef 1)
  br label %68

68:                                               ; preds = %66
  %69 = load i32, ptr %6, align 4
  %70 = add i32 %69, 1
  store i32 %70, ptr %6, align 4
  br label %64, !llvm.loop !6

71:                                               ; preds = %64
  br label %72

72:                                               ; preds = %71, %48
  br label %73

73:                                               ; preds = %72, %47
  %74 = load i32, ptr %11, align 4
  %75 = add i32 %74, 1
  store i32 %75, ptr %11, align 4
  br label %38, !llvm.loop !8

76:                                               ; preds = %38
  br label %77

77:                                               ; preds = %76, %36
  %78 = load i32, ptr %9, align 4
  %79 = add i32 %78, 1
  store i32 %79, ptr %9, align 4
  br label %25, !llvm.loop !9

80:                                               ; preds = %25
  %81 = load i32, ptr %6, align 4
  store i32 %81, ptr %4, align 4
  br label %82

82:                                               ; preds = %80, %22
  %83 = load i32, ptr %4, align 4
  ret i32 %83
}