; Function Attrs: mustprogress nofree norecurse nosync nounwind willreturn memory(read, inaccessiblemem: none) uwtable
define hidden noundef i32 @_ZNK8Pipeline23functional_unit_latencyEjPKS_(ptr nocapture noundef nonnull readonly align 8 dereferenceable(64) %0, i32 noundef %1, ptr nocapture noundef readonly %2) local_unnamed_addr #0 align 2 {
  %4 = getelementptr inbounds i8, ptr %0, i64 44
  %5 = load i32, ptr %4, align 4
  %6 = getelementptr inbounds i8, ptr %2, i64 44
  %7 = load i32, ptr %6, align 4
  %8 = and i32 %7, %5
  %9 = icmp eq i32 %8, 0
  br i1 %9, label %.loopexit31, label %.preheader30

.preheader30:                                     ; preds = %3
  %10 = getelementptr inbounds i8, ptr %2, i64 48
  %11 = load i32, ptr %10, align 8
  %.not = icmp eq i32 %11, 0
  br i1 %.not, label %.loopexit31, label %.lr.ph41

.lr.ph41:                                         ; preds = %.preheader30
  %12 = getelementptr inbounds i8, ptr %2, i64 56
  %13 = load ptr, ptr %12, align 8
  %14 = getelementptr inbounds i8, ptr %0, i64 48
  %15 = load i32, ptr %14, align 8
  %.fr43 = freeze i32 %15
  %.not44 = icmp eq i32 %.fr43, 0
  %16 = getelementptr inbounds i8, ptr %0, i64 56
  %17 = load ptr, ptr %16, align 8
  br i1 %.not44, label %.loopexit31, label %.lr.ph41.split.us.preheader

.lr.ph41.split.us.preheader:                      ; preds = %.lr.ph41
  %wide.trip.count50 = zext i32 %11 to i64
  %wide.trip.count = zext i32 %.fr43 to i64
  br label %.lr.ph41.split.us

.lr.ph41.split.us:                                ; preds = %.lr.ph41.split.us.preheader, %..loopexit29_crit_edge.us
  %indvars.iv47 = phi i64 [ 0, %.lr.ph41.split.us.preheader ], [ %indvars.iv.next48, %..loopexit29_crit_edge.us ]
  %.02240.us = phi i32 [ %1, %.lr.ph41.split.us.preheader ], [ %.4.us, %..loopexit29_crit_edge.us ]
  %18 = getelementptr inbounds %class.Pipeline_Use_Element, ptr %13, i64 %indvars.iv47
  %19 = getelementptr inbounds i8, ptr %18, i64 12
  %20 = load i8, ptr %19, align 4
  %21 = trunc i8 %20 to i1
  br i1 %21, label %..loopexit29_crit_edge.us, label %.preheader.us

22:                                               ; preds = %.preheader.us, %.loopexit.us
  %indvars.iv = phi i64 [ 0, %.preheader.us ], [ %indvars.iv.next, %.loopexit.us ]
  %.135.us = phi i32 [ %.02240.us, %.preheader.us ], [ %.3.us, %.loopexit.us ]
  %23 = getelementptr inbounds %class.Pipeline_Use_Element, ptr %17, i64 %indvars.iv
  %24 = getelementptr inbounds i8, ptr %23, i64 12
  %25 = load i8, ptr %24, align 4
  %26 = trunc i8 %25 to i1
  br i1 %26, label %.loopexit.us, label %27

27:                                               ; preds = %22
  %28 = load i32, ptr %18, align 4
  %29 = load i32, ptr %23, align 4
  %30 = and i32 %29, %28
  %.not.us = icmp eq i32 %30, 0
  br i1 %.not.us, label %.loopexit.us, label %31

31:                                               ; preds = %27
  %.sroa.0.0.copyload.i.us = load i32, ptr %38, align 4
  %32 = getelementptr inbounds i8, ptr %23, i64 16
  %.sroa.0.0.copyload.i24.us = load i32, ptr %32, align 4
  %33 = shl i32 %.sroa.0.0.copyload.i24.us, %.135.us
  %34 = and i32 %33, %.sroa.0.0.copyload.i.us
  %.not2832.us = icmp eq i32 %34, 0
  br i1 %.not2832.us, label %.loopexit.us, label %.lr.ph.us

.lr.ph.us:                                        ; preds = %31, %.lr.ph.us
  %.234.us = phi i32 [ %36, %.lr.ph.us ], [ %.135.us, %31 ]
  %.sroa.0.033.us = phi i32 [ %35, %.lr.ph.us ], [ %33, %31 ]
  %35 = shl i32 %.sroa.0.033.us, 1
  %36 = add i32 %.234.us, 1
  %37 = and i32 %35, %.sroa.0.0.copyload.i.us
  %.not28.us = icmp eq i32 %37, 0
  br i1 %.not28.us, label %.loopexit.us, label %.lr.ph.us, !llvm.loop !6

.loopexit.us:                                     ; preds = %.lr.ph.us, %31, %27, %22
  %.3.us = phi i32 [ %.135.us, %22 ], [ %.135.us, %27 ], [ %.135.us, %31 ], [ %36, %.lr.ph.us ]
  %indvars.iv.next = add nuw nsw i64 %indvars.iv, 1
  %exitcond.not = icmp eq i64 %indvars.iv.next, %wide.trip.count
  br i1 %exitcond.not, label %..loopexit29_crit_edge.us, label %22, !llvm.loop !8

..loopexit29_crit_edge.us:                        ; preds = %.loopexit.us, %.lr.ph41.split.us
  %.4.us = phi i32 [ %.02240.us, %.lr.ph41.split.us ], [ %.3.us, %.loopexit.us ]
  %indvars.iv.next48 = add nuw nsw i64 %indvars.iv47, 1
  %exitcond51.not = icmp eq i64 %indvars.iv.next48, %wide.trip.count50
  br i1 %exitcond51.not, label %.loopexit31, label %.lr.ph41.split.us, !llvm.loop !9

.preheader.us:                                    ; preds = %.lr.ph41.split.us
  %38 = getelementptr inbounds i8, ptr %18, i64 16
  br label %22

.loopexit31:                                      ; preds = %..loopexit29_crit_edge.us, %.lr.ph41, %.preheader30, %3
  %.0 = phi i32 [ %1, %3 ], [ %1, %.preheader30 ], [ %1, %.lr.ph41 ], [ %.4.us, %..loopexit29_crit_edge.us ]
  ret i32 %.0
}